; Function Attrs: mustprogress nounwind uwtable
define hidden void @_ZN4LIEF10hashstreamD2Ev(ptr noundef nonnull align 8 captures(none) dereferenceable(32) %0) unnamed_addr #1 align 2 {
  %2 = getelementptr inbounds nuw i8, ptr %0, i64 24
  %3 = load ptr, ptr %2, align 8, !tbaa !3
  tail call void @mbedtls_md_free(ptr noundef %3) #22
  %4 = load ptr, ptr %2, align 8, !tbaa !3
  store ptr null, ptr %2, align 8, !tbaa !3
  %5 = icmp eq ptr %4, null
  br i1 %5, label %_ZNSt10unique_ptrIlSt14default_deleteIlEED2Ev.exit, label %6

6:                                                ; preds = %1
  tail call void @_ZdlPvm(ptr noundef nonnull %4, i64 noundef 24) #24
  %.pr = load ptr, ptr %2, align 8, !tbaa !3
  %.not.i = icmp eq ptr %.pr, null
  br i1 %.not.i, label %_ZNSt10unique_ptrIlSt14default_deleteIlEED2Ev.exit, label %_ZNKSt14default_deleteIlEclEPl.exit.i

_ZNKSt14default_deleteIlEclEPl.exit.i:            ; preds = %6
  tail call void @_ZdlPvm(ptr noundef nonnull %.pr, i64 noundef 8) #24
  br label %_ZNSt10unique_ptrIlSt14default_deleteIlEED2Ev.exit

_ZNSt10unique_ptrIlSt14default_deleteIlEED2Ev.exit: ; preds = %1, %6, %_ZNKSt14default_deleteIlEclEPl.exit.i
  store ptr null, ptr %2, align 8, !tbaa !3
  %7 = load ptr, ptr %0, align 8, !tbaa !16
  %.not.i.i.i = icmp eq ptr %7, null
  br i1 %.not.i.i.i, label %_ZNSt6vectorIhSaIhEED2Ev.exit, label %8

8:                                                ; preds = %_ZNSt10unique_ptrIlSt14default_deleteIlEED2Ev.exit
  %9 = getelementptr inbounds nuw i8, ptr %0, i64 16
  %10 = load ptr, ptr %9, align 8, !tbaa !17
  %11 = ptrtoint ptr %10 to i64
  %12 = ptrtoint ptr %7 to i64
  %13 = sub i64 %11, %12
  tail call void @_ZdlPvm(ptr noundef nonnull %7, i64 noundef %13) #24
  br label %_ZNSt6vectorIhSaIhEED2Ev.exit

_ZNSt6vectorIhSaIhEED2Ev.exit:                    ; preds = %_ZNSt10unique_ptrIlSt14default_deleteIlEED2Ev.exit, %8
  ret void
}